; Function Attrs: nounwind uwtable
define range(i32 -1, 1) i32 @H5Epop(i64 noundef %0, i64 noundef %1) local_unnamed_addr #0 {
  %3 = alloca %struct.H5CX_node_t, align 8
  call void @llvm.lifetime.start.p0(i64 480, ptr nonnull %3) #7
  call void @llvm.memset.p0.i64(ptr noundef nonnull align 8 dereferenceable(480) %3, i8 0, i64 480, i1 false)
  %4 = load i8, ptr @H5_libinit_g, align 1, !tbaa !3, !range !7, !noundef !8
  %5 = trunc nuw i8 %4 to i1
  %6 = load i8, ptr @H5_libterm_g, align 1, !range !7
  %7 = trunc nuw i8 %6 to i1
  %8 = select i1 %5, i1 true, i1 %7
  br i1 %8, label %16, label %9, !prof !9

9:                                                ; preds = %2
  %10 = tail call i32 @H5_init_library() #7
  %11 = icmp slt i32 %10, 0
  br i1 %11, label %12, label %._crit_edge, !prof !10

._crit_edge:                                      ; preds = %9
  %.pre = load i8, ptr @H5_libterm_g, align 1, !range !7
  br label %16

12:                                               ; preds = %9
  %13 = load i64, ptr @H5E_FUNC_g, align 8, !tbaa !11
  %14 = load i64, ptr @H5E_CANTINIT_g, align 8, !tbaa !11
  %15 = tail call i32 (ptr, ptr, i32, i64, i64, ptr, ...) @H5E_printf_stack(ptr noundef nonnull @.str, ptr noundef nonnull @__func__.H5Epop, i32 noundef 477, i64 noundef %13, i64 noundef %14, ptr noundef nonnull @.str.1) #7
  br label %.thread30

16:                                               ; preds = %._crit_edge, %2
  %17 = phi i8 [ %.pre, %._crit_edge ], [ %6, %2 ]
  %18 = load i8, ptr @H5E_init_g, align 1, !tbaa !3, !range !7, !noundef !8
  %19 = trunc nuw i8 %18 to i1
  %20 = trunc nuw i8 %17 to i1
  %21 = select i1 %19, i1 true, i1 %20
  br i1 %21, label %29, label %22, !prof !9

22:                                               ; preds = %16
  store i8 1, ptr @H5E_init_g, align 1, !tbaa !3
  %23 = tail call i32 @H5E__init_package() #7
  %24 = icmp slt i32 %23, 0
  br i1 %24, label %25, label %29, !prof !13

25:                                               ; preds = %22
  store i8 0, ptr @H5E_init_g, align 1, !tbaa !3
  %26 = load i64, ptr @H5E_FUNC_g, align 8, !tbaa !11
  %27 = load i64, ptr @H5E_CANTINIT_g, align 8, !tbaa !11
  %28 = tail call i32 (ptr, ptr, i32, i64, i64, ptr, ...) @H5E_printf_stack(ptr noundef nonnull @.str, ptr noundef nonnull @__func__.H5Epop, i32 noundef 477, i64 noundef %26, i64 noundef %27, ptr noundef nonnull @.str.2) #7
  br label %.thread30

29:                                               ; preds = %16, %22
  %30 = call i32 @H5CX_push(ptr noundef nonnull %3) #7
  %31 = icmp slt i32 %30, 0
  br i1 %31, label %32, label %36, !prof !10

32:                                               ; preds = %29
  %33 = load i64, ptr @H5E_FUNC_g, align 8, !tbaa !11
  %34 = load i64, ptr @H5E_CANTSET_g, align 8, !tbaa !11
  %35 = call i32 (ptr, ptr, i32, i64, i64, ptr, ...) @H5E_printf_stack(ptr noundef nonnull @.str, ptr noundef nonnull @__func__.H5Epop, i32 noundef 477, i64 noundef %33, i64 noundef %34, ptr noundef nonnull @.str.3) #7
  br label %.thread30

36:                                               ; preds = %29
  %37 = icmp eq i64 %0, 0
  br i1 %37, label %46, label %38

38:                                               ; preds = %36
  %39 = call i32 @H5E_clear_stack() #7
  %40 = call ptr @H5I_object_verify(i64 noundef %0, i32 noundef 14) #7
  %41 = icmp eq ptr %40, null
  br i1 %41, label %42, label %46, !prof !14

42:                                               ; preds = %38
  %43 = load i64, ptr @H5E_ARGS_g, align 8, !tbaa !11
  %44 = load i64, ptr @H5E_BADTYPE_g, align 8, !tbaa !11
  %45 = call i32 (ptr, ptr, i32, i64, i64, ptr, ...) @H5E_printf_stack(ptr noundef nonnull @.str, ptr noundef nonnull @__func__.H5Epop, i32 noundef 490, i64 noundef %43, i64 noundef %44, ptr noundef nonnull @.str.21) #7
  br label %.thread36

46:                                               ; preds = %36, %38
  %.016 = phi ptr [ %40, %38 ], [ @H5E_stack_g, %36 ]
  %47 = load i64, ptr %.016, align 8, !tbaa !16
  %spec.select = call i64 @llvm.umin.i64(i64 %1, i64 %47)
  %48 = call i32 @H5E__pop(ptr noundef nonnull %.016, i64 noundef %spec.select) #7
  %49 = icmp slt i32 %48, 0
  br i1 %49, label %50, label %55, !prof !14

50:                                               ; preds = %46
  %51 = load i64, ptr @H5E_ERROR_g, align 8, !tbaa !11
  %52 = load i64, ptr @H5E_CANTRELEASE_g, align 8, !tbaa !11
  %53 = call i32 (ptr, ptr, i32, i64, i64, ptr, ...) @H5E_printf_stack(ptr noundef nonnull @.str, ptr noundef nonnull @__func__.H5Epop, i32 noundef 499, i64 noundef %51, i64 noundef %52, ptr noundef nonnull @.str.27) #7
  br label %.thread36

.thread36:                                        ; preds = %42, %50
  %54 = call i32 @H5CX_pop(i1 noundef zeroext true) #7
  br label %.thread30

55:                                               ; preds = %46
  %56 = call i32 @H5CX_pop(i1 noundef zeroext true) #7
  br label %58

.thread30:                                        ; preds = %32, %25, %12, %.thread36
  %57 = call i32 @H5E_dump_api_stack() #7
  br label %58

58:                                               ; preds = %55, %.thread30
  %.0152533 = phi i32 [ -1, %.thread30 ], [ 0, %55 ]
  call void @llvm.lifetime.end.p0(i64 480, ptr nonnull %3) #7
  ret i32 %.0152533
}